target datalayout = "e-m:e-p270:32:32-p271:32:32-p272:64:64-i64:64-i128:128-f80:128-n8:16:32:64-S128"
target triple = "x86_64-pc-linux-gnu"

%struct.options = type { i64, ptr, i64, i64, i64, i32, [32 x i64], [32 x i64], [32 x i64], [32 x i32], i32, i32, i32, i32, i32, i32, i64, i64, i32, i32, i32, i32, i32, i64, i64 }
%struct.minmax = type { double, double, double, i32 }

@output = dso_local global ptr null, align 8
@.str.24 = private unnamed_addr constant [23 x i8] c"%s (%d iteration(s)):\0A\00", align 1
@.str.25 = private unnamed_addr constant [31 x i8] c"Maximum Throughput: %6.2f MB/s\00", align 1
@.str.26 = private unnamed_addr constant [12 x i8] c" (%7.3f s)\0A\00", align 1
@.str.27 = private unnamed_addr constant [2 x i8] c"\0A\00", align 1
@.str.28 = private unnamed_addr constant [31 x i8] c"Average Throughput: %6.2f MB/s\00", align 1
@.str.29 = private unnamed_addr constant [31 x i8] c"Minimum Throughput: %6.2f MB/s\00", align 1

; Function Attrs: nounwind uwtable
define internal void @print_indent(i32 noundef %0) #0 {
  %2 = alloca i32, align 4
  store i32 %0, ptr %2, align 4
  %3 = load i32, ptr %2, align 4
  %4 = mul nsw i32 %3, 4
  store i32 %4, ptr %2, align 4
  br label %5

5:                                                ; preds = %11, %1
  %6 = load i32, ptr %2, align 4
  %7 = icmp sgt i32 %6, 0
  br i1 %7, label %8, label %14

8:                                                ; preds = %5
  %9 = load ptr, ptr @output, align 8
  %10 = call i32 @fputc(i32 noundef 32, ptr noundef %9)
  br label %11

11:                                               ; preds = %8
  %12 = load i32, ptr %2, align 4
  %13 = add nsw i32 %12, -1
  store i32 %13, ptr %2, align 4
  br label %5

14:                                               ; preds = %5
  ret void
}

; Function Attrs: nounwind uwtable
define internal void @accumulate_minmax_stuff(ptr noundef %0, i32 noundef %1, ptr noundef %2) #0 {
  %4 = alloca ptr, align 8
  %5 = alloca i32, align 4
  %6 = alloca ptr, align 8
  %7 = alloca i32, align 4
  %8 = alloca double, align 8
  store ptr %0, ptr %4, align 8
  store i32 %1, ptr %5, align 4
  store ptr %2, ptr %6, align 8
  %9 = load ptr, ptr %6, align 8
  %10 = getelementptr inbounds %struct.minmax, ptr %9, i32 0, i32 2
  store double 0.000000e+00, ptr %10, align 8
  %11 = load ptr, ptr %6, align 8
  %12 = getelementptr inbounds %struct.minmax, ptr %11, i32 0, i32 1
  store double 0xFFEFFFFFFFFFFFFF, ptr %12, align 8
  %13 = load ptr, ptr %6, align 8
  %14 = getelementptr inbounds %struct.minmax, ptr %13, i32 0, i32 0
  store double 0x7FEFFFFFFFFFFFFF, ptr %14, align 8
  %15 = load i32, ptr %5, align 4
  %16 = load ptr, ptr %6, align 8
  %17 = getelementptr inbounds %struct.minmax, ptr %16, i32 0, i32 3
  store i32 %15, ptr %17, align 8
  store i32 0, ptr %7, align 4
  br label %18

18:                                               ; preds = %54, %3
  %19 = load i32, ptr %7, align 4
  %20 = load i32, ptr %5, align 4
  %21 = icmp slt i32 %19, %20
  br i1 %21, label %22, label %57

22:                                               ; preds = %18
  %23 = load ptr, ptr %4, align 8
  %24 = load i32, ptr %7, align 4
  %25 = sext i32 %24 to i64
  %26 = getelementptr inbounds %struct.minmax, ptr %23, i64 %25
  %27 = getelementptr inbounds %struct.minmax, ptr %26, i32 0, i32 1
  %28 = load double, ptr %27, align 8
  store double %28, ptr %8, align 8
  %29 = load double, ptr %8, align 8
  %30 = load ptr, ptr %6, align 8
  %31 = getelementptr inbounds %struct.minmax, ptr %30, i32 0, i32 2
  %32 = load double, ptr %31, align 8
  %33 = fadd double %32, %29
  store double %33, ptr %31, align 8
  %34 = load double, ptr %8, align 8
  %35 = load ptr, ptr %6, align 8
  %36 = getelementptr inbounds %struct.minmax, ptr %35, i32 0, i32 0
  %37 = load double, ptr %36, align 8
  %38 = fcmp olt double %34, %37
  br i1 %38, label %39, label %43

39:                                               ; preds = %22
  %40 = load double, ptr %8, align 8
  %41 = load ptr, ptr %6, align 8
  %42 = getelementptr inbounds %struct.minmax, ptr %41, i32 0, i32 0
  store double %40, ptr %42, align 8
  br label %43

43:                                               ; preds = %39, %22
  %44 = load double, ptr %8, align 8
  %45 = load ptr, ptr %6, align 8
  %46 = getelementptr inbounds %struct.minmax, ptr %45, i32 0, i32 1
  %47 = load double, ptr %46, align 8
  %48 = fcmp ogt double %44, %47
  br i1 %48, label %49, label %53

49:                                               ; preds = %43
  %50 = load double, ptr %8, align 8
  %51 = load ptr, ptr %6, align 8
  %52 = getelementptr inbounds %struct.minmax, ptr %51, i32 0, i32 1
  store double %50, ptr %52, align 8
  br label %53

53:                                               ; preds = %49, %43
  br label %54

54:                                               ; preds = %53
  %55 = load i32, ptr %7, align 4
  %56 = add nsw i32 %55, 1
  store i32 %56, ptr %7, align 4
  br label %18

57:                                               ; preds = %18
  ret void
}

; Function Attrs: nounwind uwtable
define internal void @output_results(ptr noundef %0, ptr noundef %1, ptr noundef %2, i32 noundef %3, i64 noundef %4) #0 {
  %6 = alloca ptr, align 8
  %7 = alloca ptr, align 8
  %8 = alloca ptr, align 8
  %9 = alloca i32, align 4
  %10 = alloca i64, align 8
  %11 = alloca %struct.minmax, align 8
  store ptr %0, ptr %6, align 8
  store ptr %1, ptr %7, align 8
  store ptr %2, ptr %8, align 8
  store i32 %3, ptr %9, align 4
  store i64 %4, ptr %10, align 8
  %12 = load ptr, ptr %8, align 8
  %13 = load i32, ptr %9, align 4
  call void @accumulate_minmax_stuff(ptr noundef %12, i32 noundef %13, ptr noundef %11)
  call void @print_indent(i32 noundef 3)
  %14 = load ptr, ptr %7, align 8
  %15 = load i32, ptr %9, align 4
  call void (ptr, ...) @output_report(ptr noundef @.str.24, ptr noundef %14, i32 noundef %15)
  call void @print_indent(i32 noundef 4)
  %16 = getelementptr inbounds %struct.minmax, ptr %11, i32 0, i32 0
  %17 = load double, ptr %16, align 8
  %18 = fsub double %17, 0.000000e+00
  %19 = call double @llvm.fabs.f64(double %18)
  %20 = fcmp olt double %19, 0x3CB0000000000000
  br i1 %20, label %21, label %22

21:                                               ; preds = %5
  br label %29

22:                                               ; preds = %5
  %23 = load i64, ptr %10, align 8
  %24 = sitofp i64 %23 to double
  %25 = fdiv double %24, 0x4130000000000000
  %26 = getelementptr inbounds %struct.minmax, ptr %11, i32 0, i32 0
  %27 = load double, ptr %26, align 8
  %28 = fdiv double %25, %27
  br label %29

29:                                               ; preds = %22, %21
  %30 = phi double [ 0.000000e+00, %21 ], [ %28, %22 ]
  call void (ptr, ...) @output_report(ptr noundef @.str.25, double noundef %30)
  %31 = load ptr, ptr %6, align 8
  %32 = getelementptr inbounds %struct.options, ptr %31, i32 0, i32 14
  %33 = load i32, ptr %32, align 8
  %34 = icmp ne i32 %33, 0
  br i1 %34, label %35, label %38

35:                                               ; preds = %29
  %36 = getelementptr inbounds %struct.minmax, ptr %11, i32 0, i32 0
  %37 = load double, ptr %36, align 8
  call void (ptr, ...) @output_report(ptr noundef @.str.26, double noundef %37)
  br label %39

38:                                               ; preds = %29
  call void (ptr, ...) @output_report(ptr noundef @.str.27)
  br label %39

39:                                               ; preds = %38, %35
  call void @print_indent(i32 noundef 4)
  %40 = getelementptr inbounds %struct.minmax, ptr %11, i32 0, i32 2
  %41 = load double, ptr %40, align 8
  %42 = getelementptr inbounds %struct.minmax, ptr %11, i32 0, i32 3
  %43 = load i32, ptr %42, align 8
  %44 = sitofp i32 %43 to double
  %45 = fdiv double %41, %44
  %46 = fsub double %45, 0.000000e+00
  %47 = call double @llvm.fabs.f64(double %46)
  %48 = fcmp olt double %47, 0x3CB0000000000000
  br i1 %48, label %49, label %50

49:                                               ; preds = %39
  br label %61

50:                                               ; preds = %39
  %51 = load i64, ptr %10, align 8
  %52 = sitofp i64 %51 to double
  %53 = fdiv double %52, 0x4130000000000000
  %54 = getelementptr inbounds %struct.minmax, ptr %11, i32 0, i32 2
  %55 = load double, ptr %54, align 8
  %56 = getelementptr inbounds %struct.minmax, ptr %11, i32 0, i32 3
  %57 = load i32, ptr %56, align 8
  %58 = sitofp i32 %57 to double
  %59 = fdiv double %55, %58
  %60 = fdiv double %53, %59
  br label %61

61:                                               ; preds = %50, %49
  %62 = phi double [ 0.000000e+00, %49 ], [ %60, %50 ]
  call void (ptr, ...) @output_report(ptr noundef @.str.28, double noundef %62)
  %63 = load ptr, ptr %6, align 8
  %64 = getelementptr inbounds %struct.options, ptr %63, i32 0, i32 14
  %65 = load i32, ptr %64, align 8
  %66 = icmp ne i32 %65, 0
  br i1 %66, label %67, label %74

67:                                               ; preds = %61
  %68 = getelementptr inbounds %struct.minmax, ptr %11, i32 0, i32 2
  %69 = load double, ptr %68, align 8
  %70 = getelementptr inbounds %struct.minmax, ptr %11, i32 0, i32 3
  %71 = load i32, ptr %70, align 8
  %72 = sitofp i32 %71 to double
  %73 = fdiv double %69, %72
  call void (ptr, ...) @output_report(ptr noundef @.str.26, double noundef %73)
  br label %75

74:                                               ; preds = %61
  call void (ptr, ...) @output_report(ptr noundef @.str.27)
  br label %75

75:                                               ; preds = %74, %67
  call void @print_indent(i32 noundef 4)
  %76 = getelementptr inbounds %struct.minmax, ptr %11, i32 0, i32 1
  %77 = load double, ptr %76, align 8
  %78 = fsub double %77, 0.000000e+00
  %79 = call double @llvm.fabs.f64(double %78)
  %80 = fcmp olt double %79, 0x3CB0000000000000
  br i1 %80, label %81, label %82

81:                                               ; preds = %75
  br label %89

82:                                               ; preds = %75
  %83 = load i64, ptr %10, align 8
  %84 = sitofp i64 %83 to double
  %85 = fdiv double %84, 0x4130000000000000
  %86 = getelementptr inbounds %struct.minmax, ptr %11, i32 0, i32 1
  %87 = load double, ptr %86, align 8
  %88 = fdiv double %85, %87
  br label %89

89:                                               ; preds = %82, %81
  %90 = phi double [ 0.000000e+00, %81 ], [ %88, %82 ]
  call void (ptr, ...) @output_report(ptr noundef @.str.29, double noundef %90)
  %91 = load ptr, ptr %6, align 8
  %92 = getelementptr inbounds %struct.options, ptr %91, i32 0, i32 14
  %93 = load i32, ptr %92, align 8
  %94 = icmp ne i32 %93, 0
  br i1 %94, label %95, label %98

95:                                               ; preds = %89
  %96 = getelementptr inbounds %struct.minmax, ptr %11, i32 0, i32 1
  %97 = load double, ptr %96, align 8
  call void (ptr, ...) @output_report(ptr noundef @.str.26, double noundef %97)
  br label %99

98:                                               ; preds = %89
  call void (ptr, ...) @output_report(ptr noundef @.str.27)
  br label %99

99:                                               ; preds = %98, %95
  ret void
}