; Function Attrs: nofree nounwind uwtable
define internal fastcc void @output_results(ptr nocapture noundef readonly %0, ptr noundef %1, ptr nocapture noundef readonly %2, i32 noundef %3, i64 noundef %4) unnamed_addr #4 {
  %6 = icmp sgt i32 %3, 0
  br i1 %6, label %.lr.ph.i, label %accumulate_minmax_stuff.exit

.lr.ph.i:                                         ; preds = %5
  %wide.trip.count.i = zext nneg i32 %3 to i64
  br label %7

7:                                                ; preds = %7, %.lr.ph.i
  %.sroa.4.0 = phi double [ 0xFFEFFFFFFFFFFFFF, %.lr.ph.i ], [ %.sroa.4.1, %7 ]
  %.sroa.0.0 = phi double [ 0x7FEFFFFFFFFFFFFF, %.lr.ph.i ], [ %.sroa.0.1, %7 ]
  %indvars.iv.i = phi i64 [ 0, %.lr.ph.i ], [ %indvars.iv.next.i, %7 ]
  %8 = phi double [ 0xFFEFFFFFFFFFFFFF, %.lr.ph.i ], [ %17, %7 ]
  %9 = phi double [ 0x7FEFFFFFFFFFFFFF, %.lr.ph.i ], [ %15, %7 ]
  %10 = phi double [ 0.000000e+00, %.lr.ph.i ], [ %13, %7 ]
  %11 = getelementptr inbounds %struct.minmax, ptr %2, i64 %indvars.iv.i, i32 1
  %12 = load double, ptr %11, align 8
  %13 = fadd double %10, %12
  %14 = fcmp olt double %12, %9
  %.sroa.0.1 = select i1 %14, double %12, double %.sroa.0.0
  %15 = select i1 %14, double %12, double %9
  %16 = fcmp ogt double %12, %8
  %.sroa.4.1 = select i1 %16, double %12, double %.sroa.4.0
  %17 = select i1 %16, double %12, double %8
  %indvars.iv.next.i = add nuw nsw i64 %indvars.iv.i, 1
  %exitcond.not.i = icmp eq i64 %indvars.iv.next.i, %wide.trip.count.i
  br i1 %exitcond.not.i, label %accumulate_minmax_stuff.exit, label %7

accumulate_minmax_stuff.exit:                     ; preds = %7, %5
  %.sroa.8.0 = phi double [ 0.000000e+00, %5 ], [ %13, %7 ]
  %.sroa.4.2 = phi double [ 0xFFEFFFFFFFFFFFFF, %5 ], [ %.sroa.4.1, %7 ]
  %.sroa.0.2 = phi double [ 0x7FEFFFFFFFFFFFFF, %5 ], [ %.sroa.0.1, %7 ]
  br label %.lr.ph.i11

.lr.ph.i11:                                       ; preds = %.lr.ph.i11, %accumulate_minmax_stuff.exit
  %.03.i = phi i32 [ %20, %.lr.ph.i11 ], [ 12, %accumulate_minmax_stuff.exit ]
  %18 = load ptr, ptr @output, align 8
  %19 = tail call i32 @fputc(i32 noundef 32, ptr noundef %18)
  %20 = add nsw i32 %.03.i, -1
  %21 = icmp ugt i32 %.03.i, 1
  br i1 %21, label %.lr.ph.i11, label %print_indent.exit

print_indent.exit:                                ; preds = %.lr.ph.i11
  tail call void (ptr, ...) @output_report(ptr noundef nonnull @.str.24, ptr noundef %1, i32 noundef %3)
  br label %.lr.ph.i12

.lr.ph.i12:                                       ; preds = %.lr.ph.i12, %print_indent.exit
  %.03.i13 = phi i32 [ %24, %.lr.ph.i12 ], [ 16, %print_indent.exit ]
  %22 = load ptr, ptr @output, align 8
  %23 = tail call i32 @fputc(i32 noundef 32, ptr noundef %22)
  %24 = add nsw i32 %.03.i13, -1
  %25 = icmp ugt i32 %.03.i13, 1
  br i1 %25, label %.lr.ph.i12, label %print_indent.exit14

print_indent.exit14:                              ; preds = %.lr.ph.i12
  %26 = tail call double @llvm.fabs.f64(double %.sroa.0.2)
  %27 = fcmp olt double %26, 0x3CB0000000000000
  %28 = sitofp i64 %4 to double
  %29 = fmul double %28, 0x3EB0000000000000
  %30 = fdiv double %29, %.sroa.0.2
  %31 = select i1 %27, double 0.000000e+00, double %30
  tail call void (ptr, ...) @output_report(ptr noundef nonnull @.str.25, double noundef %31)
  %32 = getelementptr inbounds i8, ptr %0, i64 960
  %33 = load i32, ptr %32, align 8
  %.not = icmp eq i32 %33, 0
  br i1 %.not, label %35, label %34

34:                                               ; preds = %print_indent.exit14
  tail call void (ptr, ...) @output_report(ptr noundef nonnull @.str.26, double noundef %.sroa.0.2)
  br label %.lr.ph.i15.preheader

35:                                               ; preds = %print_indent.exit14
  tail call void (ptr, ...) @output_report(ptr noundef nonnull @.str.27)
  br label %.lr.ph.i15.preheader

.lr.ph.i15.preheader:                             ; preds = %35, %34
  br label %.lr.ph.i15

.lr.ph.i15:                                       ; preds = %.lr.ph.i15.preheader, %.lr.ph.i15
  %.03.i16 = phi i32 [ %38, %.lr.ph.i15 ], [ 16, %.lr.ph.i15.preheader ]
  %36 = load ptr, ptr @output, align 8
  %37 = tail call i32 @fputc(i32 noundef 32, ptr noundef %36)
  %38 = add nsw i32 %.03.i16, -1
  %39 = icmp ugt i32 %.03.i16, 1
  br i1 %39, label %.lr.ph.i15, label %print_indent.exit17

print_indent.exit17:                              ; preds = %.lr.ph.i15
  %40 = sitofp i32 %3 to double
  %41 = fdiv double %.sroa.8.0, %40
  %42 = tail call double @llvm.fabs.f64(double %41)
  %43 = fcmp olt double %42, 0x3CB0000000000000
  %44 = fdiv double %29, %41
  %45 = select i1 %43, double 0.000000e+00, double %44
  tail call void (ptr, ...) @output_report(ptr noundef nonnull @.str.28, double noundef %45)
  %46 = load i32, ptr %32, align 8
  %.not9 = icmp eq i32 %46, 0
  br i1 %.not9, label %48, label %47

47:                                               ; preds = %print_indent.exit17
  tail call void (ptr, ...) @output_report(ptr noundef nonnull @.str.26, double noundef %41)
  br label %.lr.ph.i18.preheader

48:                                               ; preds = %print_indent.exit17
  tail call void (ptr, ...) @output_report(ptr noundef nonnull @.str.27)
  br label %.lr.ph.i18.preheader

.lr.ph.i18.preheader:                             ; preds = %48, %47
  br label %.lr.ph.i18

.lr.ph.i18:                                       ; preds = %.lr.ph.i18.preheader, %.lr.ph.i18
  %.03.i19 = phi i32 [ %51, %.lr.ph.i18 ], [ 16, %.lr.ph.i18.preheader ]
  %49 = load ptr, ptr @output, align 8
  %50 = tail call i32 @fputc(i32 noundef 32, ptr noundef %49)
  %51 = add nsw i32 %.03.i19, -1
  %52 = icmp ugt i32 %.03.i19, 1
  br i1 %52, label %.lr.ph.i18, label %print_indent.exit20

print_indent.exit20:                              ; preds = %.lr.ph.i18
  %53 = tail call double @llvm.fabs.f64(double %.sroa.4.2)
  %54 = fcmp olt double %53, 0x3CB0000000000000
  %55 = fdiv double %29, %.sroa.4.2
  %56 = select i1 %54, double 0.000000e+00, double %55
  tail call void (ptr, ...) @output_report(ptr noundef nonnull @.str.29, double noundef %56)
  %57 = load i32, ptr %32, align 8
  %.not10 = icmp eq i32 %57, 0
  br i1 %.not10, label %59, label %58

58:                                               ; preds = %print_indent.exit20
  tail call void (ptr, ...) @output_report(ptr noundef nonnull @.str.26, double noundef %.sroa.4.2)
  br label %60

59:                                               ; preds = %print_indent.exit20
  tail call void (ptr, ...) @output_report(ptr noundef nonnull @.str.27)
  br label %60

60:                                               ; preds = %59, %58
  ret void
}